; Function Attrs: nounwind uwtable
define range(i32 0, 3) i32 @rank(ptr noundef %0, i32 noundef %1, i32 noundef %2) local_unnamed_addr #0 {
  %4 = tail call ptr @agget(ptr noundef %0, ptr noundef nonnull @.str.4) #21
  %.not = icmp eq ptr %4, null
  br i1 %.not, label %8, label %5

5:                                                ; preds = %3
  %6 = tail call i64 @strtol(ptr noundef nonnull captures(none) %4, ptr noundef null, i32 noundef 10) #21
  %7 = trunc i64 %6 to i32
  br label %8

8:                                                ; preds = %3, %5
  %.0 = phi i32 [ %7, %5 ], [ 30, %3 ]
  %9 = tail call i32 @rank2(ptr noundef %0, i32 noundef %1, i32 noundef %2, i32 noundef %.0)
  ret i32 %9
}